; Function Attrs: mustprogress uwtable
define hidden void @_ZNK4cvc58internal20FloatingPointLiteral4packEv(ptr dead_on_unwind noalias writable sret(%"class.cvc5::internal::BitVector") align 8 initializes((0, 4)) %0, ptr noundef nonnull align 8 dereferenceable(64) %1) local_unnamed_addr #4 align 2 personality ptr @__gxx_personality_v0 {
  %3 = alloca %"class.cvc5::internal::symfpuLiteral::wrappedBitVector.0", align 8
  call void @llvm.lifetime.start.p0(i64 24, ptr nonnull %3) #16
  %4 = getelementptr inbounds nuw i8, ptr %1, i64 8
  call void @_ZN6symfpu4packIN4cvc58internal13symfpuLiteral6traitsEEENT_3ubvERKNS5_3fptERKNS_13unpackedFloatIS5_EE(ptr dead_on_unwind nonnull writable sret(%"class.cvc5::internal::symfpuLiteral::wrappedBitVector.0") align 8 %3, ptr noundef nonnull align 4 dereferenceable(8) %1, ptr noundef nonnull align 8 dereferenceable(56) %4)
  %5 = load i32, ptr %3, align 8, !tbaa !9
  store i32 %5, ptr %0, align 8, !tbaa !9
  %6 = getelementptr inbounds nuw i8, ptr %0, i64 8
  %7 = getelementptr inbounds nuw i8, ptr %3, i64 8
  invoke void @__gmpz_init_set(ptr noundef nonnull align 8 dereferenceable(16) %6, ptr noundef nonnull align 8 dereferenceable(16) %7)
          to label %_ZN4cvc58internal9BitVectorC2ERKS1_.exit unwind label %11

_ZN4cvc58internal9BitVectorC2ERKS1_.exit:         ; preds = %2
  invoke void @__gmpz_clear(ptr noundef nonnull align 8 dereferenceable(16) %7)
          to label %_ZN4cvc58internal9BitVectorD2Ev.exit unwind label %8

8:                                                ; preds = %_ZN4cvc58internal9BitVectorC2ERKS1_.exit
  %9 = landingpad { ptr, i32 }
          catch ptr null
  %10 = extractvalue { ptr, i32 } %9, 0
  call void @__clang_call_terminate(ptr %10) #17
  unreachable

_ZN4cvc58internal9BitVectorD2Ev.exit:             ; preds = %_ZN4cvc58internal9BitVectorC2ERKS1_.exit
  call void @llvm.lifetime.end.p0(i64 24, ptr nonnull %3) #16
  ret void

11:                                               ; preds = %2
  %12 = landingpad { ptr, i32 }
          cleanup
  invoke void @__gmpz_clear(ptr noundef nonnull align 8 dereferenceable(16) %7)
          to label %_ZN4cvc58internal9BitVectorD2Ev.exit3 unwind label %13

13:                                               ; preds = %11
  %14 = landingpad { ptr, i32 }
          catch ptr null
  %15 = extractvalue { ptr, i32 } %14, 0
  call void @__clang_call_terminate(ptr %15) #17
  unreachable

_ZN4cvc58internal9BitVectorD2Ev.exit3:            ; preds = %11
  call void @llvm.lifetime.end.p0(i64 24, ptr nonnull %3) #16
  resume { ptr, i32 } %12
}